target datalayout = "e-m:e-p270:32:32-p271:32:32-p272:64:64-i64:64-i128:128-f80:128-n8:16:32:64-S128"
target triple = "x86_64-pc-linux-gnu"

@tr2dst_normal = internal global { i32, i32, i8, [3 x i8] } { i32 3, i32 0, i8 0, [3 x i8] zeroinitializer }, align 4
@tr2env_normal_be_brief = internal global i32 0, align 4

; Function Attrs: nounwind uwtable
define internal i32 @fn_init() #0 {
  %1 = alloca i32, align 4
  %2 = alloca i32, align 4
  %3 = alloca i32, align 4
  %4 = alloca ptr, align 8
  %5 = alloca i32, align 4
  call void @llvm.lifetime.start.p0(i64 4, ptr %2) #9
  %6 = call i32 @tr2_dst_trace_want(ptr noundef @tr2dst_normal)
  store i32 %6, ptr %2, align 4, !tbaa !4
  call void @llvm.lifetime.start.p0(i64 4, ptr %3) #9
  call void @llvm.lifetime.start.p0(i64 8, ptr %4) #9
  %7 = load i32, ptr %2, align 4, !tbaa !4
  %8 = icmp ne i32 %7, 0
  br i1 %8, label %11, label %9

9:                                                ; preds = %0
  %10 = load i32, ptr %2, align 4, !tbaa !4
  store i32 %10, ptr %1, align 4
  store i32 1, ptr %5, align 4
  br label %28

11:                                               ; preds = %0
  %12 = call ptr @tr2_sysenv_get(i32 noundef 4)
  store ptr %12, ptr %4, align 8, !tbaa !8
  %13 = load ptr, ptr %4, align 8, !tbaa !8
  %14 = icmp ne ptr %13, null
  br i1 %14, label %15, label %26

15:                                               ; preds = %11
  %16 = load ptr, ptr %4, align 8, !tbaa !8
  %17 = load i8, ptr %16, align 1, !tbaa !11
  %18 = sext i8 %17 to i32
  %19 = icmp ne i32 %18, 0
  br i1 %19, label %20, label %26

20:                                               ; preds = %15
  %21 = load ptr, ptr %4, align 8, !tbaa !8
  %22 = call i32 @git_parse_maybe_bool(ptr noundef %21)
  store i32 %22, ptr %3, align 4, !tbaa !4
  %23 = icmp ne i32 %22, -1
  br i1 %23, label %24, label %26

24:                                               ; preds = %20
  %25 = load i32, ptr %3, align 4, !tbaa !4
  store i32 %25, ptr @tr2env_normal_be_brief, align 4, !tbaa !4
  br label %26

26:                                               ; preds = %24, %20, %15, %11
  %27 = load i32, ptr %2, align 4, !tbaa !4
  store i32 %27, ptr %1, align 4
  store i32 1, ptr %5, align 4
  br label %28

28:                                               ; preds = %26, %9
  call void @llvm.lifetime.end.p0(i64 8, ptr %4) #9
  call void @llvm.lifetime.end.p0(i64 4, ptr %3) #9
  call void @llvm.lifetime.end.p0(i64 4, ptr %2) #9
  %29 = load i32, ptr %1, align 4
  ret i32 %29
}