; Function Attrs: nounwind uwtable
define internal i32 @fn_init() #0 {
  %1 = tail call i32 @tr2_dst_trace_want(ptr noundef nonnull @tr2dst_normal) #7
  %.not = icmp eq i32 %1, 0
  br i1 %.not, label %9, label %2

2:                                                ; preds = %0
  %3 = tail call ptr @tr2_sysenv_get(i32 noundef 4) #7
  %.not8 = icmp eq ptr %3, null
  br i1 %.not8, label %9, label %4

4:                                                ; preds = %2
  %5 = load i8, ptr %3, align 1, !tbaa !4
  %.not9 = icmp eq i8 %5, 0
  br i1 %.not9, label %9, label %6

6:                                                ; preds = %4
  %7 = tail call i32 @git_parse_maybe_bool(ptr noundef nonnull %3) #7
  %.not10 = icmp eq i32 %7, -1
  br i1 %.not10, label %9, label %8

8:                                                ; preds = %6
  store i32 %7, ptr @tr2env_normal_be_brief, align 4, !tbaa !7
  br label %9

9:                                                ; preds = %2, %4, %6, %8, %0
  ret i32 %1
}